; Function Attrs: nounwind uwtable
define dso_local range(i32 -1, 1) i32 @common_cgroup_get_param(ptr noundef readonly captures(none) %0, ptr noundef %1, ptr noundef writeonly captures(address_is_null) %2, ptr noundef writeonly captures(address_is_null) %3) local_unnamed_addr #0 {
  %5 = alloca ptr, align 8
  %6 = alloca [4096 x i8], align 16
  call void @llvm.lifetime.start.p0(i64 4096, ptr nonnull %6) #8
  %7 = getelementptr inbounds nuw i8, ptr %0, i64 16
  %8 = load ptr, ptr %7, align 8
  %9 = call i32 (ptr, i64, ptr, ...) @snprintf(ptr noundef nonnull dereferenceable(1) %6, i64 noundef 4096, ptr noundef nonnull @.str.18, ptr noundef %8, ptr noundef %1) #8
  %10 = icmp sgt i32 %9, 4095
  br i1 %10, label %11, label %18

11:                                               ; preds = %4
  %12 = load i64, ptr getelementptr inbounds nuw (i8, ptr @slurm_conf, i64 320), align 8
  %13 = and i64 %12, 36028797018963968
  %.not12 = icmp eq i64 %13, 0
  br i1 %.not12, label %32, label %14

14:                                               ; preds = %11
  %15 = tail call i32 @get_log_level() #8
  %16 = icmp sgt i32 %15, 3
  br i1 %16, label %17, label %32

17:                                               ; preds = %14
  tail call void (i32, ptr, ...) @log_var(i32 noundef 4, ptr noundef nonnull @.str.19, ptr noundef nonnull @plugin_type, ptr noundef nonnull @__func__.common_cgroup_get_param, ptr noundef %8, ptr noundef %1) #8
  br label %32

18:                                               ; preds = %4
  call void @llvm.lifetime.start.p0(i64 8, ptr nonnull %5) #8
  store ptr null, ptr %5, align 8
  %19 = icmp eq ptr %2, null
  %20 = icmp eq ptr %3, null
  %or.cond.i = or i1 %19, %20
  br i1 %or.cond.i, label %25, label %21

21:                                               ; preds = %18
  %22 = call fastcc i64 @_read_cg_file(ptr noundef nonnull %6, ptr noundef %5)
  %23 = icmp slt i64 %22, 0
  br i1 %23, label %25, label %common_file_read_content.exit

common_file_read_content.exit:                    ; preds = %21
  %24 = load ptr, ptr %5, align 8
  store ptr %24, ptr %2, align 8
  store i64 %22, ptr %3, align 8
  call void @llvm.lifetime.end.p0(i64 8, ptr nonnull %5) #8
  br label %32

25:                                               ; preds = %18, %21
  call void @llvm.lifetime.end.p0(i64 8, ptr nonnull %5) #8
  %26 = load i64, ptr getelementptr inbounds nuw (i8, ptr @slurm_conf, i64 320), align 8
  %27 = and i64 %26, 36028797018963968
  %.not11 = icmp eq i64 %27, 0
  br i1 %.not11, label %32, label %28

28:                                               ; preds = %25
  %29 = call i32 @get_log_level() #8
  %30 = icmp sgt i32 %29, 3
  br i1 %30, label %31, label %32

31:                                               ; preds = %28
  call void (i32, ptr, ...) @log_var(i32 noundef 4, ptr noundef nonnull @.str.31, ptr noundef nonnull @plugin_type, ptr noundef nonnull @__func__.common_cgroup_get_param, ptr noundef %1, ptr noundef %8) #8
  br label %32

32:                                               ; preds = %common_file_read_content.exit, %28, %31, %25, %11, %17, %14
  %.0 = phi i32 [ -1, %17 ], [ -1, %14 ], [ -1, %11 ], [ -1, %31 ], [ -1, %28 ], [ -1, %25 ], [ 0, %common_file_read_content.exit ]
  call void @llvm.lifetime.end.p0(i64 4096, ptr nonnull %6) #8
  ret i32 %.0
}